target datalayout = "e-m:e-p270:32:32-p271:32:32-p272:64:64-i64:64-i128:128-f80:128-n8:16:32:64-S128"
target triple = "x86_64-pc-linux-gnu"

%struct.Abc_Frame_t_ = type { ptr, ptr, ptr, ptr, ptr, ptr, ptr, ptr, ptr, ptr, i32, i32, i32, i32, i32, ptr, float, float, i32, i32, ptr, ptr, ptr, double, double, ptr, ptr, ptr, ptr, ptr, ptr, ptr, ptr, ptr, ptr, ptr, ptr, float, ptr, i32, ptr, ptr, ptr, ptr, ptr, i32, i32, i32, i32, i32, i32, ptr, ptr, ptr, ptr, ptr, ptr, i32, i32, ptr, ptr, ptr, ptr, ptr, ptr, ptr, ptr, ptr, ptr, ptr, ptr, ptr, ptr, ptr, ptr, ptr, ptr, ptr, ptr, ptr, ptr, ptr, ptr, ptr, ptr, ptr, ptr, ptr, ptr }

@.str.39 = private unnamed_addr constant [4 x i8] c"yes\00", align 1
@.str.40 = private unnamed_addr constant [3 x i8] c"no\00", align 1
@.str.79 = private unnamed_addr constant [38 x i8] c"\09-h     : prints the command summary\0A\00", align 1
@.str.80 = private unnamed_addr constant [38 x i8] c"\09<file> : the name of a file to read\0A\00", align 1
@.str.102 = private unnamed_addr constant [3 x i8] c"vh\00", align 1
@.str.166 = private unnamed_addr constant [62 x i8] c"\09-v     : toggle printing verbose information [default = %s]\0A\00", align 1
@.str.205 = private unnamed_addr constant [34 x i8] c"usage: print_constr [-vh] <file>\0A\00", align 1
@.str.206 = private unnamed_addr constant [45 x i8] c"\09         prints current timing constraints\0A\00", align 1

; Function Attrs: inlinehint nounwind uwtable
define internal ptr @Scl_ConGetMan(ptr noundef %0) #1 {
  %2 = alloca ptr, align 8
  store ptr %0, ptr %2, align 8, !tbaa !3
  %3 = load ptr, ptr %2, align 8, !tbaa !3
  %4 = getelementptr inbounds nuw %struct.Abc_Frame_t_, ptr %3, i32 0, i32 35
  %5 = load ptr, ptr %4, align 8, !tbaa !8
  ret ptr %5
}

; Function Attrs: nounwind uwtable
define internal i32 @Scl_CommandPrintConstr(ptr noundef %0, i32 noundef %1, ptr noundef %2) #0 {
  %4 = alloca i32, align 4
  %5 = alloca ptr, align 8
  %6 = alloca i32, align 4
  %7 = alloca ptr, align 8
  %8 = alloca ptr, align 8
  %9 = alloca i32, align 4
  %10 = alloca i32, align 4
  %11 = alloca i32, align 4
  store ptr %0, ptr %5, align 8, !tbaa !3
  store i32 %1, ptr %6, align 4, !tbaa !29
  store ptr %2, ptr %7, align 8, !tbaa !50
  call void @llvm.lifetime.start.p0(i64 8, ptr %8) #12
  %12 = load ptr, ptr %5, align 8, !tbaa !3
  %13 = call ptr @Scl_ConGetMan(ptr noundef %12)
  store ptr %13, ptr %8, align 8, !tbaa !118
  call void @llvm.lifetime.start.p0(i64 4, ptr %9) #12
  call void @llvm.lifetime.start.p0(i64 4, ptr %10) #12
  store i32 0, ptr %10, align 4, !tbaa !29
  call void (...) @Extra_UtilGetoptReset()
  br label %14

14:                                               ; preds = %26, %3
  %15 = load i32, ptr %6, align 4, !tbaa !29
  %16 = load ptr, ptr %7, align 8, !tbaa !50
  %17 = call i32 @Extra_UtilGetopt(i32 noundef %15, ptr noundef %16, ptr noundef @.str.102)
  store i32 %17, ptr %9, align 4, !tbaa !29
  %18 = icmp ne i32 %17, -1
  br i1 %18, label %19, label %27

19:                                               ; preds = %14
  %20 = load i32, ptr %9, align 4, !tbaa !29
  switch i32 %20, label %25 [
    i32 118, label %21
    i32 104, label %24
  ]

21:                                               ; preds = %19
  %22 = load i32, ptr %10, align 4, !tbaa !29
  %23 = xor i32 %22, 1
  store i32 %23, ptr %10, align 4, !tbaa !29
  br label %26

24:                                               ; preds = %19
  br label %33

25:                                               ; preds = %19
  br label %33

26:                                               ; preds = %21
  br label %14, !llvm.loop !123

27:                                               ; preds = %14
  %28 = load ptr, ptr %8, align 8, !tbaa !118
  %29 = icmp ne ptr %28, null
  br i1 %29, label %30, label %32

30:                                               ; preds = %27
  %31 = load ptr, ptr %8, align 8, !tbaa !118
  call void @Scl_ConWrite(ptr noundef %31, ptr noundef null)
  br label %32

32:                                               ; preds = %30, %27
  store i32 0, ptr %4, align 4
  store i32 1, ptr %11, align 4
  br label %57

33:                                               ; preds = %25, %24
  %34 = load ptr, ptr %5, align 8, !tbaa !3
  %35 = getelementptr inbounds nuw %struct.Abc_Frame_t_, ptr %34, i32 0, i32 21
  %36 = load ptr, ptr %35, align 8, !tbaa !59
  %37 = call i32 (ptr, ptr, ...) @fprintf(ptr noundef %36, ptr noundef @.str.205) #12
  %38 = load ptr, ptr %5, align 8, !tbaa !3
  %39 = getelementptr inbounds nuw %struct.Abc_Frame_t_, ptr %38, i32 0, i32 21
  %40 = load ptr, ptr %39, align 8, !tbaa !59
  %41 = call i32 (ptr, ptr, ...) @fprintf(ptr noundef %40, ptr noundef @.str.206) #12
  %42 = load ptr, ptr %5, align 8, !tbaa !3
  %43 = getelementptr inbounds nuw %struct.Abc_Frame_t_, ptr %42, i32 0, i32 21
  %44 = load ptr, ptr %43, align 8, !tbaa !59
  %45 = load i32, ptr %10, align 4, !tbaa !29
  %46 = icmp ne i32 %45, 0
  %47 = select i1 %46, ptr @.str.39, ptr @.str.40
  %48 = call i32 (ptr, ptr, ...) @fprintf(ptr noundef %44, ptr noundef @.str.166, ptr noundef %47) #12
  %49 = load ptr, ptr %5, align 8, !tbaa !3
  %50 = getelementptr inbounds nuw %struct.Abc_Frame_t_, ptr %49, i32 0, i32 21
  %51 = load ptr, ptr %50, align 8, !tbaa !59
  %52 = call i32 (ptr, ptr, ...) @fprintf(ptr noundef %51, ptr noundef @.str.79) #12
  %53 = load ptr, ptr %5, align 8, !tbaa !3
  %54 = getelementptr inbounds nuw %struct.Abc_Frame_t_, ptr %53, i32 0, i32 21
  %55 = load ptr, ptr %54, align 8, !tbaa !59
  %56 = call i32 (ptr, ptr, ...) @fprintf(ptr noundef %55, ptr noundef @.str.80) #12
  store i32 1, ptr %4, align 4
  store i32 1, ptr %11, align 4
  br label %57

57:                                               ; preds = %33, %32
  call void @llvm.lifetime.end.p0(i64 4, ptr %10) #12
  call void @llvm.lifetime.end.p0(i64 4, ptr %9) #12
  call void @llvm.lifetime.end.p0(i64 8, ptr %8) #12
  %58 = load i32, ptr %4, align 4
  ret i32 %58
}