; Function Attrs: nounwind uwtable
define internal range(i32 0, 2) i32 @Scl_CommandPrintConstr(ptr noundef readonly captures(none) %0, i32 noundef %1, ptr noundef %2) #0 {
  %4 = getelementptr i8, ptr %0, i64 248
  %.val = load ptr, ptr %4, align 8, !tbaa !3
  tail call void (...) @Extra_UtilGetoptReset() #12
  br label %5

5:                                                ; preds = %7, %3
  %.0 = phi i32 [ 0, %3 ], [ %8, %7 ]
  %6 = tail call i32 @Extra_UtilGetopt(i32 noundef %1, ptr noundef %2, ptr noundef nonnull @.str.102) #12
  switch i32 %6, label %11 [
    i32 -1, label %9
    i32 118, label %7
  ]

7:                                                ; preds = %5
  %8 = xor i32 %.0, 1
  br label %5, !llvm.loop !123

9:                                                ; preds = %5
  %.not16 = icmp eq ptr %.val, null
  br i1 %.not16, label %24, label %10

10:                                               ; preds = %9
  tail call fastcc void @Scl_ConWrite(ptr noundef %.val, ptr noundef null)
  br label %24

11:                                               ; preds = %5
  %12 = getelementptr inbounds nuw i8, ptr %0, i64 136
  %13 = load ptr, ptr %12, align 8, !tbaa !84
  %14 = tail call i64 @fwrite(ptr nonnull @.str.205, i64 33, i64 1, ptr %13)
  %15 = load ptr, ptr %12, align 8, !tbaa !84
  %16 = tail call i64 @fwrite(ptr nonnull @.str.206, i64 44, i64 1, ptr %15)
  %17 = load ptr, ptr %12, align 8, !tbaa !84
  %.not17 = icmp eq i32 %.0, 0
  %18 = select i1 %.not17, ptr @.str.40, ptr @.str.39
  %19 = tail call i32 (ptr, ptr, ...) @fprintf(ptr noundef %17, ptr noundef nonnull @.str.166, ptr noundef nonnull %18) #12
  %20 = load ptr, ptr %12, align 8, !tbaa !84
  %21 = tail call i64 @fwrite(ptr nonnull @.str.79, i64 37, i64 1, ptr %20)
  %22 = load ptr, ptr %12, align 8, !tbaa !84
  %23 = tail call i64 @fwrite(ptr nonnull @.str.80, i64 37, i64 1, ptr %22)
  br label %24

24:                                               ; preds = %9, %10, %11
  %.013 = phi i32 [ 1, %11 ], [ 0, %10 ], [ 0, %9 ]
  ret i32 %.013
}